; Function Attrs: mustprogress nounwind uwtable
define hidden noundef ptr @_ZNK8MinDNode8add_ringEPK4TypeS2_(ptr noundef nonnull align 8 dereferenceable(52) %0, ptr noundef %1, ptr noundef %2) unnamed_addr #0 align 2 {
  %4 = getelementptr inbounds i8, ptr %1, i64 16
  %5 = load i32, ptr %4, align 8
  %6 = icmp eq i32 %5, 35
  %..i = select i1 %6, ptr %1, ptr null
  %7 = getelementptr inbounds i8, ptr %2, i64 16
  %8 = load i32, ptr %7, align 8
  %9 = icmp eq i32 %8, 35
  %..i29 = select i1 %9, ptr %2, ptr null
  %10 = icmp eq ptr %..i, null
  %11 = icmp eq ptr %..i29, null
  %or.cond = or i1 %10, %11
  br i1 %or.cond, label %12, label %17

12:                                               ; preds = %3
  %13 = load ptr, ptr %0, align 8
  %14 = getelementptr inbounds i8, ptr %13, i64 40
  %15 = load ptr, ptr %14, align 8
  %16 = tail call noundef ptr %15(ptr noundef nonnull align 8 dereferenceable(52) %0) #7
  br label %42

17:                                               ; preds = %3
  %18 = load ptr, ptr %..i, align 8
  %19 = getelementptr inbounds i8, ptr %18, i64 56
  %20 = load ptr, ptr %19, align 8
  %21 = tail call noundef zeroext i1 %20(ptr noundef nonnull align 8 dereferenceable(32) %..i) #7
  br i1 %21, label %42, label %22

22:                                               ; preds = %17
  %23 = load ptr, ptr %..i29, align 8
  %24 = getelementptr inbounds i8, ptr %23, i64 56
  %25 = load ptr, ptr %24, align 8
  %26 = tail call noundef zeroext i1 %25(ptr noundef nonnull align 8 dereferenceable(32) %..i29) #7
  br i1 %26, label %42, label %27

27:                                               ; preds = %22
  %28 = getelementptr inbounds i8, ptr %..i, i64 24
  %29 = load double, ptr %28, align 8
  %30 = getelementptr inbounds i8, ptr %..i29, i64 24
  %31 = load double, ptr %30, align 8
  %32 = fcmp une double %29, 0.000000e+00
  %33 = fcmp une double %31, 0.000000e+00
  %or.cond3 = or i1 %32, %33
  br i1 %or.cond3, label %34, label %37

34:                                               ; preds = %27
  %35 = fcmp olt double %29, %31
  %36 = select i1 %35, ptr %..i, ptr %..i29
  br label %42

37:                                               ; preds = %27
  %38 = bitcast double %29 to i64
  %39 = bitcast double %31 to i64
  %40 = icmp slt i64 %38, %39
  %41 = select i1 %40, ptr %..i, ptr %..i29
  br label %42

42:                                               ; preds = %22, %17, %37, %34, %12
  %.0 = phi ptr [ %16, %12 ], [ %36, %34 ], [ %41, %37 ], [ %1, %17 ], [ %2, %22 ]
  ret ptr %.0
}